target datalayout = "e-m:e-p270:32:32-p271:32:32-p272:64:64-i64:64-i128:128-f80:128-n8:16:32:64-S128"
target triple = "x86_64-unknown-linux-gnu"

%struct.QEMUIOVector = type { ptr, i32, %union.anon }
%union.anon = type { %struct.anon }
%struct.anon = type { i32, %struct.iovec }
%struct.iovec = type { ptr, i64 }
%struct.IDEState = type { ptr, i8, i32, i32, i32, i32, i32, i32, i32, i64, i32, i32, [512 x i8], i32, [21 x i8], [41 x i8], i64, i8, i8, i32, i8, i8, i8, i8, i8, i8, i8, i8, i8, i8, i8, i8, i8, ptr, [9 x i8], %struct.unreported_events, i8, i8, i8, i8, i8, i32, i32, i32, i32, i32, i32, %struct.BlockAcctCookie, ptr, %struct.QEMUIOVector, %struct.anon.1, i64, i32, %struct.QEMUSGList, i32, ptr, ptr, ptr, ptr, i32, i32, i32, i8, ptr, i32, i8, i32, ptr, i32, i32, i8, i8, i32, i8, ptr, i32 }
%struct.unreported_events = type { i8, i8 }
%struct.BlockAcctCookie = type { i64, i64, i32 }
%struct.anon.1 = type { ptr }
%struct.QEMUSGList = type { ptr, i32, i32, i64, ptr, ptr }
%struct.TrimAIOCB = type { %struct.BlockAIOCB, ptr, ptr, i32, ptr, ptr, i32, i32 }
%struct.BlockAIOCB = type { ptr, ptr, ptr, ptr, i32 }

; Function Attrs: nounwind sspstrong uwtable
define internal zeroext i1 @ide_sect_range_ok(ptr noundef %s, i64 noundef %sector, i64 noundef %nb_sectors) #0 {
entry:
  %retval = alloca i1, align 1
  %s.addr = alloca ptr, align 8
  %sector.addr = alloca i64, align 8
  %nb_sectors.addr = alloca i64, align 8
  %total_sectors = alloca i64, align 8
  store ptr %s, ptr %s.addr, align 8
  store i64 %sector, ptr %sector.addr, align 8
  store i64 %nb_sectors, ptr %nb_sectors.addr, align 8
  %0 = load ptr, ptr %s.addr, align 8
  %blk = getelementptr inbounds %struct.IDEState, ptr %0, i32 0, i32 33
  %1 = load ptr, ptr %blk, align 8
  call void @blk_get_geometry(ptr noundef %1, ptr noundef %total_sectors)
  %2 = load i64, ptr %sector.addr, align 8
  %3 = load i64, ptr %total_sectors, align 8
  %cmp = icmp ugt i64 %2, %3
  br i1 %cmp, label %if.then, label %lor.lhs.false

lor.lhs.false:                                    ; preds = %entry
  %4 = load i64, ptr %nb_sectors.addr, align 8
  %5 = load i64, ptr %total_sectors, align 8
  %6 = load i64, ptr %sector.addr, align 8
  %sub = sub i64 %5, %6
  %cmp1 = icmp ugt i64 %4, %sub
  br i1 %cmp1, label %if.then, label %if.end

if.then:                                          ; preds = %lor.lhs.false, %entry
  store i1 false, ptr %retval, align 1
  br label %return

if.end:                                           ; preds = %lor.lhs.false
  store i1 true, ptr %retval, align 1
  br label %return

return:                                           ; preds = %if.end, %if.then
  %7 = load i1, ptr %retval, align 1
  ret i1 %7
}

; Function Attrs: nounwind sspstrong uwtable
define internal i64 @le64_to_cpu(i64 noundef %v) #0 {
entry:
  %v.addr = alloca i64, align 8
  store i64 %v, ptr %v.addr, align 8
  %0 = load i64, ptr %v.addr, align 8
  ret i64 %0
}

; Function Attrs: nounwind sspstrong uwtable
define internal void @ide_issue_trim_cb(ptr noundef %opaque, i32 noundef %ret) #0 {
entry:
  %opaque.addr = alloca ptr, align 8
  %ret.addr = alloca i32, align 4
  %iocb = alloca ptr, align 8
  %s = alloca ptr, align 8
  %j11 = alloca i32, align 4
  %i19 = alloca i32, align 4
  %buffer = alloca ptr, align 8
  %entry25 = alloca i64, align 8
  %sector = alloca i64, align 8
  %count = alloca i16, align 2
  store ptr %opaque, ptr %opaque.addr, align 8
  store i32 %ret, ptr %ret.addr, align 4
  %0 = load ptr, ptr %opaque.addr, align 8
  store ptr %0, ptr %iocb, align 8
  %1 = load ptr, ptr %iocb, align 8
  %s1 = getelementptr inbounds %struct.TrimAIOCB, ptr %1, i32 0, i32 1
  %2 = load ptr, ptr %s1, align 8
  store ptr %2, ptr %s, align 8
  %3 = load ptr, ptr %iocb, align 8
  %i = getelementptr inbounds %struct.TrimAIOCB, ptr %3, i32 0, i32 6
  %4 = load i32, ptr %i, align 8
  %cmp = icmp sge i32 %4, 0
  br i1 %cmp, label %if.then, label %if.end7

if.then:                                          ; preds = %entry
  %5 = load i32, ptr %ret.addr, align 4
  %cmp2 = icmp sge i32 %5, 0
  br i1 %cmp2, label %if.then3, label %if.else

if.then3:                                         ; preds = %if.then
  %6 = load ptr, ptr %s, align 8
  %blk = getelementptr inbounds %struct.IDEState, ptr %6, i32 0, i32 33
  %7 = load ptr, ptr %blk, align 8
  %call = call ptr @blk_get_stats(ptr noundef %7)
  %8 = load ptr, ptr %s, align 8
  %acct = getelementptr inbounds %struct.IDEState, ptr %8, i32 0, i32 47
  call void @block_acct_done(ptr noundef %call, ptr noundef %acct)
  br label %if.end

if.else:                                          ; preds = %if.then
  %9 = load ptr, ptr %s, align 8
  %blk4 = getelementptr inbounds %struct.IDEState, ptr %9, i32 0, i32 33
  %10 = load ptr, ptr %blk4, align 8
  %call5 = call ptr @blk_get_stats(ptr noundef %10)
  %11 = load ptr, ptr %s, align 8
  %acct6 = getelementptr inbounds %struct.IDEState, ptr %11, i32 0, i32 47
  call void @block_acct_failed(ptr noundef %call5, ptr noundef %acct6)
  br label %if.end

if.end:                                           ; preds = %if.else, %if.then3
  br label %if.end7

if.end7:                                          ; preds = %if.end, %entry
  %12 = load i32, ptr %ret.addr, align 4
  %cmp8 = icmp sge i32 %12, 0
  br i1 %cmp8, label %if.then9, label %if.else57

if.then9:                                         ; preds = %if.end7
  br label %while.cond

while.cond:                                       ; preds = %while.end, %if.then9
  %13 = load ptr, ptr %iocb, align 8
  %j = getelementptr inbounds %struct.TrimAIOCB, ptr %13, i32 0, i32 7
  %14 = load i32, ptr %j, align 4
  %15 = load ptr, ptr %iocb, align 8
  %qiov = getelementptr inbounds %struct.TrimAIOCB, ptr %15, i32 0, i32 4
  %16 = load ptr, ptr %qiov, align 8
  %niov = getelementptr inbounds %struct.QEMUIOVector, ptr %16, i32 0, i32 1
  %17 = load i32, ptr %niov, align 8
  %cmp10 = icmp slt i32 %14, %17
  br i1 %cmp10, label %while.body, label %while.end56

while.body:                                       ; preds = %while.cond
  %18 = load ptr, ptr %iocb, align 8
  %j12 = getelementptr inbounds %struct.TrimAIOCB, ptr %18, i32 0, i32 7
  %19 = load i32, ptr %j12, align 4
  store i32 %19, ptr %j11, align 4
  br label %while.cond13

while.cond13:                                     ; preds = %if.then33, %while.body
  %20 = load ptr, ptr %iocb, align 8
  %i14 = getelementptr inbounds %struct.TrimAIOCB, ptr %20, i32 0, i32 6
  %21 = load i32, ptr %i14, align 8
  %inc = add i32 %21, 1
  store i32 %inc, ptr %i14, align 8
  %conv = sext i32 %inc to i64
  %22 = load ptr, ptr %iocb, align 8
  %qiov15 = getelementptr inbounds %struct.TrimAIOCB, ptr %22, i32 0, i32 4
  %23 = load ptr, ptr %qiov15, align 8
  %iov = getelementptr inbounds %struct.QEMUIOVector, ptr %23, i32 0, i32 0
  %24 = load ptr, ptr %iov, align 8
  %25 = load i32, ptr %j11, align 4
  %idxprom = sext i32 %25 to i64
  %arrayidx = getelementptr %struct.iovec, ptr %24, i64 %idxprom
  %iov_len = getelementptr inbounds %struct.iovec, ptr %arrayidx, i32 0, i32 1
  %26 = load i64, ptr %iov_len, align 8
  %div = udiv i64 %26, 8
  %cmp16 = icmp ult i64 %conv, %div
  br i1 %cmp16, label %while.body18, label %while.end

while.body18:                                     ; preds = %while.cond13
  %27 = load ptr, ptr %iocb, align 8
  %i20 = getelementptr inbounds %struct.TrimAIOCB, ptr %27, i32 0, i32 6
  %28 = load i32, ptr %i20, align 8
  store i32 %28, ptr %i19, align 4
  %29 = load ptr, ptr %iocb, align 8
  %qiov21 = getelementptr inbounds %struct.TrimAIOCB, ptr %29, i32 0, i32 4
  %30 = load ptr, ptr %qiov21, align 8
  %iov22 = getelementptr inbounds %struct.QEMUIOVector, ptr %30, i32 0, i32 0
  %31 = load ptr, ptr %iov22, align 8
  %32 = load i32, ptr %j11, align 4
  %idxprom23 = sext i32 %32 to i64
  %arrayidx24 = getelementptr %struct.iovec, ptr %31, i64 %idxprom23
  %iov_base = getelementptr inbounds %struct.iovec, ptr %arrayidx24, i32 0, i32 0
  %33 = load ptr, ptr %iov_base, align 8
  store ptr %33, ptr %buffer, align 8
  %34 = load ptr, ptr %buffer, align 8
  %35 = load i32, ptr %i19, align 4
  %idxprom26 = sext i32 %35 to i64
  %arrayidx27 = getelementptr i64, ptr %34, i64 %idxprom26
  %36 = load i64, ptr %arrayidx27, align 8
  %call28 = call i64 @le64_to_cpu(i64 noundef %36)
  store i64 %call28, ptr %entry25, align 8
  %37 = load i64, ptr %entry25, align 8
  %and = and i64 %37, 281474976710655
  store i64 %and, ptr %sector, align 8
  %38 = load i64, ptr %entry25, align 8
  %shr = lshr i64 %38, 48
  %conv29 = trunc i64 %shr to i16
  store i16 %conv29, ptr %count, align 2
  %39 = load i16, ptr %count, align 2
  %conv30 = zext i16 %39 to i32
  %cmp31 = icmp eq i32 %conv30, 0
  br i1 %cmp31, label %if.then33, label %if.end34

if.then33:                                        ; preds = %while.body18
  br label %while.cond13, !llvm.loop !7

if.end34:                                         ; preds = %while.body18
  %40 = load ptr, ptr %s, align 8
  %41 = load i64, ptr %sector, align 8
  %42 = load i16, ptr %count, align 2
  %conv35 = zext i16 %42 to i64
  %call36 = call zeroext i1 @ide_sect_range_ok(ptr noundef %40, i64 noundef %41, i64 noundef %conv35)
  br i1 %call36, label %if.end41, label %if.then37

if.then37:                                        ; preds = %if.end34
  %43 = load ptr, ptr %s, align 8
  %blk38 = getelementptr inbounds %struct.IDEState, ptr %43, i32 0, i32 33
  %44 = load ptr, ptr %blk38, align 8
  %call39 = call ptr @blk_get_stats(ptr noundef %44)
  call void @block_acct_invalid(ptr noundef %call39, i32 noundef 5)
  %45 = load ptr, ptr %iocb, align 8
  %ret40 = getelementptr inbounds %struct.TrimAIOCB, ptr %45, i32 0, i32 3
  store i32 -22, ptr %ret40, align 8
  br label %done

if.end41:                                         ; preds = %if.end34
  %46 = load ptr, ptr %s, align 8
  %blk42 = getelementptr inbounds %struct.IDEState, ptr %46, i32 0, i32 33
  %47 = load ptr, ptr %blk42, align 8
  %call43 = call ptr @blk_get_stats(ptr noundef %47)
  %48 = load ptr, ptr %s, align 8
  %acct44 = getelementptr inbounds %struct.IDEState, ptr %48, i32 0, i32 47
  %49 = load i16, ptr %count, align 2
  %conv45 = zext i16 %49 to i32
  %shl = shl i32 %conv45, 9
  %conv46 = sext i32 %shl to i64
  call void @block_acct_start(ptr noundef %call43, ptr noundef %acct44, i64 noundef %conv46, i32 noundef 5)
  %50 = load ptr, ptr %s, align 8
  %blk47 = getelementptr inbounds %struct.IDEState, ptr %50, i32 0, i32 33
  %51 = load ptr, ptr %blk47, align 8
  %52 = load i64, ptr %sector, align 8
  %shl48 = shl i64 %52, 9
  %53 = load i16, ptr %count, align 2
  %conv49 = zext i16 %53 to i32
  %shl50 = shl i32 %conv49, 9
  %conv51 = sext i32 %shl50 to i64
  %54 = load ptr, ptr %opaque.addr, align 8
  %call52 = call ptr @blk_aio_pdiscard(ptr noundef %51, i64 noundef %shl48, i64 noundef %conv51, ptr noundef @ide_issue_trim_cb, ptr noundef %54)
  %55 = load ptr, ptr %iocb, align 8
  %aiocb = getelementptr inbounds %struct.TrimAIOCB, ptr %55, i32 0, i32 5
  store ptr %call52, ptr %aiocb, align 8
  br label %if.end63

while.end:                                        ; preds = %while.cond13
  %56 = load ptr, ptr %iocb, align 8
  %j53 = getelementptr inbounds %struct.TrimAIOCB, ptr %56, i32 0, i32 7
  %57 = load i32, ptr %j53, align 4
  %inc54 = add i32 %57, 1
  store i32 %inc54, ptr %j53, align 4
  %58 = load ptr, ptr %iocb, align 8
  %i55 = getelementptr inbounds %struct.TrimAIOCB, ptr %58, i32 0, i32 6
  store i32 -1, ptr %i55, align 8
  br label %while.cond, !llvm.loop !8

while.end56:                                      ; preds = %while.cond
  br label %if.end59

if.else57:                                        ; preds = %if.end7
  %59 = load i32, ptr %ret.addr, align 4
  %60 = load ptr, ptr %iocb, align 8
  %ret58 = getelementptr inbounds %struct.TrimAIOCB, ptr %60, i32 0, i32 3
  store i32 %59, ptr %ret58, align 8
  br label %if.end59

if.end59:                                         ; preds = %if.else57, %while.end56
  br label %done

done:                                             ; preds = %if.end59, %if.then37
  %61 = load ptr, ptr %iocb, align 8
  %aiocb60 = getelementptr inbounds %struct.TrimAIOCB, ptr %61, i32 0, i32 5
  store ptr null, ptr %aiocb60, align 8
  %62 = load ptr, ptr %iocb, align 8
  %bh = getelementptr inbounds %struct.TrimAIOCB, ptr %62, i32 0, i32 2
  %63 = load ptr, ptr %bh, align 8
  %tobool = icmp ne ptr %63, null
  br i1 %tobool, label %if.then61, label %if.end63

if.then61:                                        ; preds = %done
  %64 = load ptr, ptr %iocb, align 8
  %bh62 = getelementptr inbounds %struct.TrimAIOCB, ptr %64, i32 0, i32 2
  %65 = load ptr, ptr %bh62, align 8
  call void @replay_bh_schedule_event(ptr noundef %65)
  br label %if.end63

if.end63:                                         ; preds = %if.then61, %done, %if.end41
  ret void
}