; Function Attrs: nounwind sspstrong uwtable
define internal void @ide_issue_trim_cb(ptr noundef %opaque, i32 noundef %ret) #0 {
entry:
  %total_sectors.i = alloca i64, align 8
  %s1 = getelementptr inbounds nuw i8, ptr %opaque, i64 40
  %0 = load ptr, ptr %s1, align 8
  %i = getelementptr inbounds nuw i8, ptr %opaque, i64 80
  %1 = load i32, ptr %i, align 8
  %cmp = icmp sgt i32 %1, -1
  %cmp2 = icmp sgt i32 %ret, -1
  br i1 %cmp, label %if.then, label %if.end7

if.then:                                          ; preds = %entry
  %blk = getelementptr inbounds nuw i8, ptr %0, i64 672
  %2 = load ptr, ptr %blk, align 8
  %call = tail call ptr @blk_get_stats(ptr noundef %2) #17
  %acct = getelementptr inbounds nuw i8, ptr %0, i64 720
  br i1 %cmp2, label %if.end7.thread41, label %if.end7.thread

if.end7.thread41:                                 ; preds = %if.then
  tail call void @block_acct_done(ptr noundef %call, ptr noundef nonnull %acct) #17
  br label %while.cond.preheader

if.end7.thread:                                   ; preds = %if.then
  tail call void @block_acct_failed(ptr noundef %call, ptr noundef nonnull %acct) #17
  br label %done.sink.split

if.end7:                                          ; preds = %entry
  br i1 %cmp2, label %while.cond.preheader, label %done.sink.split

while.cond.preheader:                             ; preds = %if.end7.thread41, %if.end7
  %j = getelementptr inbounds nuw i8, ptr %opaque, i64 84
  %qiov = getelementptr inbounds nuw i8, ptr %opaque, i64 64
  %3 = load ptr, ptr %qiov, align 8
  %niov = getelementptr inbounds nuw i8, ptr %3, i64 8
  %4 = load i32, ptr %j, align 4
  %5 = load i32, ptr %niov, align 8
  %cmp1038 = icmp slt i32 %4, %5
  br i1 %cmp1038, label %while.cond13.preheader.preheader, label %done

while.cond13.preheader.preheader:                 ; preds = %while.cond.preheader
  %6 = sext i32 %4 to i64
  %.pre.pre = load i32, ptr %i, align 8
  br label %while.cond13.preheader

while.cond13.preheader:                           ; preds = %while.cond13.preheader.preheader, %while.end
  %.pre = phi i32 [ %.pre.pre, %while.cond13.preheader.preheader ], [ -1, %while.end ]
  %indvars.iv = phi i64 [ %6, %while.cond13.preheader.preheader ], [ %indvars.iv.next, %while.end ]
  br label %while.cond13

while.cond13:                                     ; preds = %while.cond13.preheader, %while.body18
  %7 = phi i32 [ %.pre, %while.cond13.preheader ], [ %inc, %while.body18 ]
  %inc = add i32 %7, 1
  store i32 %inc, ptr %i, align 8
  %conv = sext i32 %inc to i64
  %8 = load ptr, ptr %3, align 8
  %arrayidx = getelementptr %struct.iovec, ptr %8, i64 %indvars.iv
  %iov_len = getelementptr inbounds nuw i8, ptr %arrayidx, i64 8
  %9 = load i64, ptr %iov_len, align 8
  %div35 = lshr i64 %9, 3
  %cmp16 = icmp ugt i64 %div35, %conv
  br i1 %cmp16, label %while.body18, label %while.end

while.body18:                                     ; preds = %while.cond13
  %10 = load ptr, ptr %arrayidx, align 8
  %arrayidx27 = getelementptr i64, ptr %10, i64 %conv
  %11 = load i64, ptr %arrayidx27, align 8
  %cmp31 = icmp ult i64 %11, 281474976710656
  br i1 %cmp31, label %while.cond13, label %if.end34, !llvm.loop !5

if.end34:                                         ; preds = %while.body18
  %and.le = and i64 %11, 281474976710655
  %shr.le = lshr i64 %11, 48
  %12 = getelementptr i8, ptr %0, i64 672
  %.val = load ptr, ptr %12, align 8
  call void @llvm.lifetime.start.p0(i64 8, ptr nonnull %total_sectors.i)
  call void @blk_get_geometry(ptr noundef %.val, ptr noundef nonnull %total_sectors.i) #17
  %13 = load i64, ptr %total_sectors.i, align 8
  %cmp.i = icmp ule i64 %and.le, %13
  %sub.i = sub nuw i64 %13, %and.le
  %cmp1.i = icmp ule i64 %shr.le, %sub.i
  %or.cond.not.i = select i1 %cmp.i, i1 %cmp1.i, i1 false
  call void @llvm.lifetime.end.p0(i64 8, ptr nonnull %total_sectors.i)
  %14 = load ptr, ptr %12, align 8
  %call43 = call ptr @blk_get_stats(ptr noundef %14) #17
  br i1 %or.cond.not.i, label %if.end41, label %if.then37

if.then37:                                        ; preds = %if.end34
  call void @block_acct_invalid(ptr noundef %call43, i32 noundef 5) #17
  br label %done.sink.split

if.end41:                                         ; preds = %if.end34
  %acct44 = getelementptr inbounds nuw i8, ptr %0, i64 720
  %shl = shl nuw nsw i64 %shr.le, 9
  call void @block_acct_start(ptr noundef %call43, ptr noundef nonnull %acct44, i64 noundef %shl, i32 noundef 5) #17
  %15 = load ptr, ptr %12, align 8
  %shl48 = shl nuw nsw i64 %and.le, 9
  %call52 = call ptr @blk_aio_pdiscard(ptr noundef %15, i64 noundef %shl48, i64 noundef %shl, ptr noundef nonnull @ide_issue_trim_cb, ptr noundef nonnull %opaque) #17
  %aiocb = getelementptr inbounds nuw i8, ptr %opaque, i64 72
  store ptr %call52, ptr %aiocb, align 8
  br label %if.end63

while.end:                                        ; preds = %while.cond13
  %indvars.iv.next = add nsw i64 %indvars.iv, 1
  %16 = trunc nsw i64 %indvars.iv.next to i32
  store i32 %16, ptr %j, align 4
  store i32 -1, ptr %i, align 8
  %17 = load i32, ptr %niov, align 8
  %18 = sext i32 %17 to i64
  %cmp10 = icmp slt i64 %indvars.iv.next, %18
  br i1 %cmp10, label %while.cond13.preheader, label %done, !llvm.loop !7

done.sink.split:                                  ; preds = %if.end7, %if.end7.thread, %if.then37
  %ret.sink = phi i32 [ -22, %if.then37 ], [ %ret, %if.end7.thread ], [ %ret, %if.end7 ]
  %ret58 = getelementptr inbounds nuw i8, ptr %opaque, i64 56
  store i32 %ret.sink, ptr %ret58, align 8
  br label %done

done:                                             ; preds = %while.end, %done.sink.split, %while.cond.preheader
  %aiocb60 = getelementptr inbounds nuw i8, ptr %opaque, i64 72
  store ptr null, ptr %aiocb60, align 8
  %bh = getelementptr inbounds nuw i8, ptr %opaque, i64 48
  %19 = load ptr, ptr %bh, align 8
  %tobool.not = icmp eq ptr %19, null
  br i1 %tobool.not, label %if.end63, label %if.then61

if.then61:                                        ; preds = %done
  call void @replay_bh_schedule_event(ptr noundef nonnull %19) #17
  br label %if.end63

if.end63:                                         ; preds = %if.then61, %done, %if.end41
  ret void
}